target datalayout = "e-m:e-p270:32:32-p271:32:32-p272:64:64-i64:64-i128:128-f80:128-n8:16:32:64-S128"
target triple = "x86_64-pc-linux-gnu"

%struct.mbedtls_x509_time = type { i32, i32, i32, i32, i32, i32 }

@.str = private unnamed_addr constant [118 x i8] c"generated/home/dtcxzyw/WorkSpace/Projects/compilers/llvm-opt-benchmark/bench/lief/bench_build/mbed_src/library/x509.c\00", align 1

; Function Attrs: nounwind uwtable
define internal i32 @x509_date_is_valid(ptr noundef %0) #0 {
  %2 = alloca i32, align 4
  %3 = alloca ptr, align 8
  %4 = alloca i32, align 4
  %5 = alloca i32, align 4
  %6 = alloca i32, align 4
  store ptr %0, ptr %3, align 8, !tbaa !30
  call void @llvm.lifetime.start.p0(i64 4, ptr %4) #9
  call void @llvm.lifetime.start.p0(i64 4, ptr %5) #9
  %7 = load ptr, ptr %3, align 8, !tbaa !30
  %8 = getelementptr inbounds nuw %struct.mbedtls_x509_time, ptr %7, i32 0, i32 1
  %9 = load i32, ptr %8, align 4, !tbaa !34
  switch i32 %9, label %32 [
    i32 1, label %10
    i32 3, label %10
    i32 5, label %10
    i32 7, label %10
    i32 8, label %10
    i32 10, label %10
    i32 12, label %10
    i32 4, label %11
    i32 6, label %11
    i32 9, label %11
    i32 11, label %11
    i32 2, label %12
  ]

10:                                               ; preds = %1, %1, %1, %1, %1, %1, %1
  store i32 31, ptr %4, align 4, !tbaa !13
  br label %33

11:                                               ; preds = %1, %1, %1, %1
  store i32 30, ptr %4, align 4, !tbaa !13
  br label %33

12:                                               ; preds = %1
  %13 = load ptr, ptr %3, align 8, !tbaa !30
  %14 = getelementptr inbounds nuw %struct.mbedtls_x509_time, ptr %13, i32 0, i32 0
  %15 = load i32, ptr %14, align 4, !tbaa !32
  store i32 %15, ptr %5, align 4, !tbaa !13
  %16 = load i32, ptr %5, align 4, !tbaa !13
  %17 = and i32 %16, 3
  %18 = icmp ne i32 %17, 0
  br i1 %18, label %29, label %19

19:                                               ; preds = %12
  %20 = load i32, ptr %5, align 4, !tbaa !13
  %21 = urem i32 %20, 100
  %22 = icmp ne i32 %21, 0
  br i1 %22, label %27, label %23

23:                                               ; preds = %19
  %24 = load i32, ptr %5, align 4, !tbaa !13
  %25 = urem i32 %24, 400
  %26 = icmp ne i32 %25, 0
  br label %27

27:                                               ; preds = %23, %19
  %28 = phi i1 [ false, %19 ], [ %26, %23 ]
  br label %29

29:                                               ; preds = %27, %12
  %30 = phi i1 [ true, %12 ], [ %28, %27 ]
  %31 = select i1 %30, i32 28, i32 29
  store i32 %31, ptr %4, align 4, !tbaa !13
  br label %33

32:                                               ; preds = %1
  store i32 -9216, ptr %2, align 4
  store i32 1, ptr %6, align 4
  br label %62

33:                                               ; preds = %29, %11, %10
  %34 = load ptr, ptr %3, align 8, !tbaa !30
  %35 = getelementptr inbounds nuw %struct.mbedtls_x509_time, ptr %34, i32 0, i32 2
  %36 = load i32, ptr %35, align 4, !tbaa !35
  %37 = sub nsw i32 %36, 1
  %38 = load i32, ptr %4, align 4, !tbaa !13
  %39 = icmp uge i32 %37, %38
  br i1 %39, label %60, label %40

40:                                               ; preds = %33
  %41 = load ptr, ptr %3, align 8, !tbaa !30
  %42 = getelementptr inbounds nuw %struct.mbedtls_x509_time, ptr %41, i32 0, i32 0
  %43 = load i32, ptr %42, align 4, !tbaa !32
  %44 = icmp ugt i32 %43, 9999
  br i1 %44, label %60, label %45

45:                                               ; preds = %40
  %46 = load ptr, ptr %3, align 8, !tbaa !30
  %47 = getelementptr inbounds nuw %struct.mbedtls_x509_time, ptr %46, i32 0, i32 3
  %48 = load i32, ptr %47, align 4, !tbaa !36
  %49 = icmp ugt i32 %48, 23
  br i1 %49, label %60, label %50

50:                                               ; preds = %45
  %51 = load ptr, ptr %3, align 8, !tbaa !30
  %52 = getelementptr inbounds nuw %struct.mbedtls_x509_time, ptr %51, i32 0, i32 4
  %53 = load i32, ptr %52, align 4, !tbaa !37
  %54 = icmp ugt i32 %53, 59
  br i1 %54, label %60, label %55

55:                                               ; preds = %50
  %56 = load ptr, ptr %3, align 8, !tbaa !30
  %57 = getelementptr inbounds nuw %struct.mbedtls_x509_time, ptr %56, i32 0, i32 5
  %58 = load i32, ptr %57, align 4, !tbaa !38
  %59 = icmp ugt i32 %58, 59
  br i1 %59, label %60, label %61

60:                                               ; preds = %55, %50, %45, %40, %33
  store i32 -9216, ptr %2, align 4
  store i32 1, ptr %6, align 4
  br label %62

61:                                               ; preds = %55
  store i32 0, ptr %2, align 4
  store i32 1, ptr %6, align 4
  br label %62

62:                                               ; preds = %61, %60, %32
  call void @llvm.lifetime.end.p0(i64 4, ptr %5) #9
  call void @llvm.lifetime.end.p0(i64 4, ptr %4) #9
  %63 = load i32, ptr %2, align 4
  ret i32 %63
}

; Function Attrs: nounwind uwtable
define internal i32 @x509_parse2_int(ptr noundef %0) #0 {
  %2 = alloca ptr, align 8
  %3 = alloca i32, align 4
  %4 = alloca i32, align 4
  store ptr %0, ptr %2, align 8, !tbaa !9
  call void @llvm.lifetime.start.p0(i64 4, ptr %3) #9
  %5 = load ptr, ptr %2, align 8, !tbaa !9
  %6 = getelementptr inbounds i8, ptr %5, i64 0
  %7 = load i8, ptr %6, align 1, !tbaa !15
  %8 = zext i8 %7 to i32
  %9 = sub nsw i32 %8, 48
  store i32 %9, ptr %3, align 4, !tbaa !13
  call void @llvm.lifetime.start.p0(i64 4, ptr %4) #9
  %10 = load ptr, ptr %2, align 8, !tbaa !9
  %11 = getelementptr inbounds i8, ptr %10, i64 1
  %12 = load i8, ptr %11, align 1, !tbaa !15
  %13 = zext i8 %12 to i32
  %14 = sub nsw i32 %13, 48
  store i32 %14, ptr %4, align 4, !tbaa !13
  %15 = load i32, ptr %3, align 4, !tbaa !13
  %16 = icmp ult i32 %15, 10
  br i1 %16, label %17, label %25

17:                                               ; preds = %1
  %18 = load i32, ptr %4, align 4, !tbaa !13
  %19 = icmp ult i32 %18, 10
  br i1 %19, label %20, label %25

20:                                               ; preds = %17
  %21 = load i32, ptr %3, align 4, !tbaa !13
  %22 = mul i32 %21, 10
  %23 = load i32, ptr %4, align 4, !tbaa !13
  %24 = add i32 %22, %23
  br label %26

25:                                               ; preds = %17, %1
  br label %26

26:                                               ; preds = %25, %20
  %27 = phi i32 [ %24, %20 ], [ -1, %25 ]
  call void @llvm.lifetime.end.p0(i64 4, ptr %4) #9
  call void @llvm.lifetime.end.p0(i64 4, ptr %3) #9
  ret i32 %27
}

; Function Attrs: nounwind uwtable
define internal i32 @x509_parse_time(ptr noundef %0, ptr noundef %1, i64 noundef %2) #0 {
  %4 = alloca i32, align 4
  %5 = alloca ptr, align 8
  %6 = alloca ptr, align 8
  %7 = alloca i64, align 8
  %8 = alloca i32, align 4
  %9 = alloca i32, align 4
  store ptr %0, ptr %5, align 8, !tbaa !9
  store ptr %1, ptr %6, align 8, !tbaa !30
  store i64 %2, ptr %7, align 8, !tbaa !24
  call void @llvm.lifetime.start.p0(i64 4, ptr %8) #9
  %10 = load ptr, ptr %5, align 8, !tbaa !9
  %11 = call i32 @x509_parse2_int(ptr noundef %10)
  %12 = load ptr, ptr %6, align 8, !tbaa !30
  %13 = getelementptr inbounds nuw %struct.mbedtls_x509_time, ptr %12, i32 0, i32 0
  store i32 %11, ptr %13, align 4, !tbaa !32
  %14 = load ptr, ptr %6, align 8, !tbaa !30
  %15 = getelementptr inbounds nuw %struct.mbedtls_x509_time, ptr %14, i32 0, i32 0
  %16 = load i32, ptr %15, align 4, !tbaa !32
  %17 = icmp slt i32 %16, 0
  br i1 %17, label %18, label %19

18:                                               ; preds = %3
  store i32 -9216, ptr %4, align 4
  store i32 1, ptr %9, align 4
  br label %78

19:                                               ; preds = %3
  %20 = load i64, ptr %7, align 8, !tbaa !24
  %21 = icmp eq i64 4, %20
  br i1 %21, label %22, label %39

22:                                               ; preds = %19
  %23 = load ptr, ptr %6, align 8, !tbaa !30
  %24 = getelementptr inbounds nuw %struct.mbedtls_x509_time, ptr %23, i32 0, i32 0
  %25 = load i32, ptr %24, align 4, !tbaa !32
  %26 = mul nsw i32 %25, 100
  store i32 %26, ptr %8, align 4, !tbaa !13
  %27 = load ptr, ptr %5, align 8, !tbaa !9
  %28 = getelementptr inbounds i8, ptr %27, i64 2
  store ptr %28, ptr %5, align 8, !tbaa !9
  %29 = load ptr, ptr %5, align 8, !tbaa !9
  %30 = call i32 @x509_parse2_int(ptr noundef %29)
  %31 = load ptr, ptr %6, align 8, !tbaa !30
  %32 = getelementptr inbounds nuw %struct.mbedtls_x509_time, ptr %31, i32 0, i32 0
  store i32 %30, ptr %32, align 4, !tbaa !32
  %33 = load ptr, ptr %6, align 8, !tbaa !30
  %34 = getelementptr inbounds nuw %struct.mbedtls_x509_time, ptr %33, i32 0, i32 0
  %35 = load i32, ptr %34, align 4, !tbaa !32
  %36 = icmp slt i32 %35, 0
  br i1 %36, label %37, label %38

37:                                               ; preds = %22
  store i32 -9216, ptr %4, align 4
  store i32 1, ptr %9, align 4
  br label %78

38:                                               ; preds = %22
  br label %45

39:                                               ; preds = %19
  %40 = load ptr, ptr %6, align 8, !tbaa !30
  %41 = getelementptr inbounds nuw %struct.mbedtls_x509_time, ptr %40, i32 0, i32 0
  %42 = load i32, ptr %41, align 4, !tbaa !32
  %43 = icmp slt i32 %42, 50
  %44 = select i1 %43, i32 2000, i32 1900
  store i32 %44, ptr %8, align 4, !tbaa !13
  br label %45

45:                                               ; preds = %39, %38
  %46 = load i32, ptr %8, align 4, !tbaa !13
  %47 = load ptr, ptr %6, align 8, !tbaa !30
  %48 = getelementptr inbounds nuw %struct.mbedtls_x509_time, ptr %47, i32 0, i32 0
  %49 = load i32, ptr %48, align 4, !tbaa !32
  %50 = add nsw i32 %49, %46
  store i32 %50, ptr %48, align 4, !tbaa !32
  %51 = load ptr, ptr %5, align 8, !tbaa !9
  %52 = getelementptr inbounds i8, ptr %51, i64 2
  %53 = call i32 @x509_parse2_int(ptr noundef %52)
  %54 = load ptr, ptr %6, align 8, !tbaa !30
  %55 = getelementptr inbounds nuw %struct.mbedtls_x509_time, ptr %54, i32 0, i32 1
  store i32 %53, ptr %55, align 4, !tbaa !34
  %56 = load ptr, ptr %5, align 8, !tbaa !9
  %57 = getelementptr inbounds i8, ptr %56, i64 4
  %58 = call i32 @x509_parse2_int(ptr noundef %57)
  %59 = load ptr, ptr %6, align 8, !tbaa !30
  %60 = getelementptr inbounds nuw %struct.mbedtls_x509_time, ptr %59, i32 0, i32 2
  store i32 %58, ptr %60, align 4, !tbaa !35
  %61 = load ptr, ptr %5, align 8, !tbaa !9
  %62 = getelementptr inbounds i8, ptr %61, i64 6
  %63 = call i32 @x509_parse2_int(ptr noundef %62)
  %64 = load ptr, ptr %6, align 8, !tbaa !30
  %65 = getelementptr inbounds nuw %struct.mbedtls_x509_time, ptr %64, i32 0, i32 3
  store i32 %63, ptr %65, align 4, !tbaa !36
  %66 = load ptr, ptr %5, align 8, !tbaa !9
  %67 = getelementptr inbounds i8, ptr %66, i64 8
  %68 = call i32 @x509_parse2_int(ptr noundef %67)
  %69 = load ptr, ptr %6, align 8, !tbaa !30
  %70 = getelementptr inbounds nuw %struct.mbedtls_x509_time, ptr %69, i32 0, i32 4
  store i32 %68, ptr %70, align 4, !tbaa !37
  %71 = load ptr, ptr %5, align 8, !tbaa !9
  %72 = getelementptr inbounds i8, ptr %71, i64 10
  %73 = call i32 @x509_parse2_int(ptr noundef %72)
  %74 = load ptr, ptr %6, align 8, !tbaa !30
  %75 = getelementptr inbounds nuw %struct.mbedtls_x509_time, ptr %74, i32 0, i32 5
  store i32 %73, ptr %75, align 4, !tbaa !38
  %76 = load ptr, ptr %6, align 8, !tbaa !30
  %77 = call i32 @x509_date_is_valid(ptr noundef %76)
  store i32 %77, ptr %4, align 4
  store i32 1, ptr %9, align 4
  br label %78

78:                                               ; preds = %45, %37, %18
  call void @llvm.lifetime.end.p0(i64 4, ptr %8) #9
  %79 = load i32, ptr %4, align 4
  ret i32 %79
}

; Function Attrs: inlinehint nounwind uwtable
define internal i32 @mbedtls_error_add(i32 noundef %0, i32 noundef %1, ptr noundef %2, i32 noundef %3) #2 {
  %5 = alloca i32, align 4
  %6 = alloca i32, align 4
  %7 = alloca ptr, align 8
  %8 = alloca i32, align 4
  store i32 %0, ptr %5, align 4, !tbaa !13
  store i32 %1, ptr %6, align 4, !tbaa !13
  store ptr %2, ptr %7, align 8, !tbaa !9
  store i32 %3, ptr %8, align 4, !tbaa !13
  %9 = load i32, ptr %5, align 4, !tbaa !13
  %10 = load i32, ptr %6, align 4, !tbaa !13
  %11 = add nsw i32 %9, %10
  ret i32 %11
}

; Function Attrs: nounwind uwtable
define hidden i32 @mbedtls_x509_get_time(ptr noundef %0, ptr noundef %1, ptr noundef %2) #0 {
  %4 = alloca i32, align 4
  %5 = alloca ptr, align 8
  %6 = alloca ptr, align 8
  %7 = alloca ptr, align 8
  %8 = alloca i32, align 4
  %9 = alloca i64, align 8
  %10 = alloca i64, align 8
  %11 = alloca i8, align 1
  %12 = alloca i32, align 4
  store ptr %0, ptr %5, align 8, !tbaa !3
  store ptr %1, ptr %6, align 8, !tbaa !9
  store ptr %2, ptr %7, align 8, !tbaa !30
  call void @llvm.lifetime.start.p0(i64 4, ptr %8) #9
  store i32 -110, ptr %8, align 4, !tbaa !13
  call void @llvm.lifetime.start.p0(i64 8, ptr %9) #9
  call void @llvm.lifetime.start.p0(i64 8, ptr %10) #9
  call void @llvm.lifetime.start.p0(i64 1, ptr %11) #9
  %13 = load ptr, ptr %6, align 8, !tbaa !9
  %14 = load ptr, ptr %5, align 8, !tbaa !3
  %15 = load ptr, ptr %14, align 8, !tbaa !9
  %16 = ptrtoint ptr %13 to i64
  %17 = ptrtoint ptr %15 to i64
  %18 = sub i64 %16, %17
  %19 = icmp slt i64 %18, 1
  br i1 %19, label %20, label %22

20:                                               ; preds = %3
  %21 = call i32 @mbedtls_error_add(i32 noundef -9216, i32 noundef -96, ptr noundef @.str, i32 noundef 658)
  store i32 %21, ptr %4, align 4
  store i32 1, ptr %12, align 4
  br label %83

22:                                               ; preds = %3
  %23 = load ptr, ptr %5, align 8, !tbaa !3
  %24 = load ptr, ptr %23, align 8, !tbaa !9
  %25 = load i8, ptr %24, align 1, !tbaa !15
  store i8 %25, ptr %11, align 1, !tbaa !15
  %26 = load i8, ptr %11, align 1, !tbaa !15
  %27 = zext i8 %26 to i32
  %28 = icmp eq i32 %27, 23
  br i1 %28, label %29, label %30

29:                                               ; preds = %22
  store i64 2, ptr %10, align 8, !tbaa !24
  br label %38

30:                                               ; preds = %22
  %31 = load i8, ptr %11, align 1, !tbaa !15
  %32 = zext i8 %31 to i32
  %33 = icmp eq i32 %32, 24
  br i1 %33, label %34, label %35

34:                                               ; preds = %30
  store i64 4, ptr %10, align 8, !tbaa !24
  br label %37

35:                                               ; preds = %30
  %36 = call i32 @mbedtls_error_add(i32 noundef -9216, i32 noundef -98, ptr noundef @.str, i32 noundef 669)
  store i32 %36, ptr %4, align 4
  store i32 1, ptr %12, align 4
  br label %83

37:                                               ; preds = %34
  br label %38

38:                                               ; preds = %37, %29
  %39 = load ptr, ptr %5, align 8, !tbaa !3
  %40 = load ptr, ptr %39, align 8, !tbaa !9
  %41 = getelementptr inbounds nuw i8, ptr %40, i32 1
  store ptr %41, ptr %39, align 8, !tbaa !9
  %42 = load ptr, ptr %5, align 8, !tbaa !3
  %43 = load ptr, ptr %6, align 8, !tbaa !9
  %44 = call i32 @mbedtls_asn1_get_len(ptr noundef %42, ptr noundef %43, ptr noundef %9)
  store i32 %44, ptr %8, align 4, !tbaa !13
  %45 = load i32, ptr %8, align 4, !tbaa !13
  %46 = icmp ne i32 %45, 0
  br i1 %46, label %47, label %50

47:                                               ; preds = %38
  %48 = load i32, ptr %8, align 4, !tbaa !13
  %49 = call i32 @mbedtls_error_add(i32 noundef -9216, i32 noundef %48, ptr noundef @.str, i32 noundef 676)
  store i32 %49, ptr %4, align 4
  store i32 1, ptr %12, align 4
  br label %83

50:                                               ; preds = %38
  %51 = load i64, ptr %9, align 8, !tbaa !24
  %52 = load i64, ptr %10, align 8, !tbaa !24
  %53 = add i64 %52, 10
  %54 = icmp ne i64 %51, %53
  br i1 %54, label %55, label %70

55:                                               ; preds = %50
  %56 = load i64, ptr %9, align 8, !tbaa !24
  %57 = load i64, ptr %10, align 8, !tbaa !24
  %58 = add i64 %57, 11
  %59 = icmp eq i64 %56, %58
  br i1 %59, label %60, label %69

60:                                               ; preds = %55
  %61 = load ptr, ptr %5, align 8, !tbaa !3
  %62 = load ptr, ptr %61, align 8, !tbaa !9
  %63 = load i64, ptr %9, align 8, !tbaa !24
  %64 = sub i64 %63, 1
  %65 = getelementptr inbounds nuw i8, ptr %62, i64 %64
  %66 = load i8, ptr %65, align 1, !tbaa !15
  %67 = zext i8 %66 to i32
  %68 = icmp eq i32 %67, 90
  br i1 %68, label %70, label %69

69:                                               ; preds = %60, %55
  store i32 -9216, ptr %4, align 4
  store i32 1, ptr %12, align 4
  br label %83

70:                                               ; preds = %60, %50
  %71 = load i64, ptr %9, align 8, !tbaa !24
  %72 = load ptr, ptr %5, align 8, !tbaa !3
  %73 = load ptr, ptr %72, align 8, !tbaa !9
  %74 = getelementptr inbounds nuw i8, ptr %73, i64 %71
  store ptr %74, ptr %72, align 8, !tbaa !9
  %75 = load ptr, ptr %5, align 8, !tbaa !3
  %76 = load ptr, ptr %75, align 8, !tbaa !9
  %77 = load i64, ptr %9, align 8, !tbaa !24
  %78 = sub i64 0, %77
  %79 = getelementptr inbounds i8, ptr %76, i64 %78
  %80 = load ptr, ptr %7, align 8, !tbaa !30
  %81 = load i64, ptr %10, align 8, !tbaa !24
  %82 = call i32 @x509_parse_time(ptr noundef %79, ptr noundef %80, i64 noundef %81)
  store i32 %82, ptr %4, align 4
  store i32 1, ptr %12, align 4
  br label %83

83:                                               ; preds = %70, %69, %47, %35, %20
  call void @llvm.lifetime.end.p0(i64 1, ptr %11) #9
  call void @llvm.lifetime.end.p0(i64 8, ptr %10) #9
  call void @llvm.lifetime.end.p0(i64 8, ptr %9) #9
  call void @llvm.lifetime.end.p0(i64 4, ptr %8) #9
  %84 = load i32, ptr %4, align 4
  ret i32 %84
}