; Function Attrs: nounwind uwtable
define hidden range(i32 -2147483648, 2147474432) i32 @mbedtls_x509_get_time(ptr noundef %0, ptr noundef %1, ptr noundef writeonly captures(none) %2) local_unnamed_addr #0 {
  %4 = alloca i64, align 8
  call void @llvm.lifetime.start.p0(i64 8, ptr nonnull %4) #13
  %5 = load ptr, ptr %0, align 8, !tbaa !3
  %6 = ptrtoint ptr %1 to i64
  %7 = ptrtoint ptr %5 to i64
  %8 = sub i64 %6, %7
  %9 = icmp slt i64 %8, 1
  br i1 %9, label %x509_parse_time.exit, label %10

10:                                               ; preds = %3
  %11 = load i8, ptr %5, align 1, !tbaa !8
  switch i8 %11, label %x509_parse_time.exit [
    i8 23, label %13
    i8 24, label %12
  ]

12:                                               ; preds = %10
  br label %13

13:                                               ; preds = %10, %12
  %14 = phi i1 [ true, %12 ], [ false, %10 ]
  %.017 = phi i64 [ 4, %12 ], [ 2, %10 ]
  %15 = getelementptr inbounds nuw i8, ptr %5, i64 1
  store ptr %15, ptr %0, align 8, !tbaa !3
  %16 = call i32 @mbedtls_asn1_get_len(ptr noundef nonnull %0, ptr noundef %1, ptr noundef nonnull %4) #13
  %.not = icmp eq i32 %16, 0
  br i1 %.not, label %19, label %17

17:                                               ; preds = %13
  %18 = add nsw i32 %16, -9216
  br label %x509_parse_time.exit

19:                                               ; preds = %13
  %20 = load i64, ptr %4, align 8, !tbaa !16
  %21 = add nuw nsw i64 %.017, 10
  %.not21 = icmp eq i64 %20, %21
  br i1 %.not21, label %._crit_edge, label %22

._crit_edge:                                      ; preds = %19
  %.pre = load ptr, ptr %0, align 8, !tbaa !3
  br label %31

22:                                               ; preds = %19
  %23 = add nuw nsw i64 %.017, 11
  %24 = icmp eq i64 %20, %23
  br i1 %24, label %25, label %x509_parse_time.exit

25:                                               ; preds = %22
  %26 = load ptr, ptr %0, align 8, !tbaa !3
  %27 = getelementptr i8, ptr %26, i64 %20
  %28 = getelementptr i8, ptr %27, i64 -1
  %29 = load i8, ptr %28, align 1, !tbaa !8
  %30 = icmp eq i8 %29, 90
  br i1 %30, label %31, label %x509_parse_time.exit

31:                                               ; preds = %._crit_edge, %25
  %32 = phi ptr [ %.pre, %._crit_edge ], [ %26, %25 ]
  %33 = getelementptr inbounds nuw i8, ptr %32, i64 %20
  store ptr %33, ptr %0, align 8, !tbaa !3
  %.val.i = load i8, ptr %32, align 1, !tbaa !8
  %34 = getelementptr i8, ptr %32, i64 1
  %.val26.i = load i8, ptr %34, align 1, !tbaa !8
  %35 = zext i8 %.val.i to i32
  %36 = add nsw i32 %35, -48
  %37 = zext i8 %.val26.i to i32
  %38 = add nsw i32 %37, -48
  %39 = icmp ult i32 %36, 10
  %40 = icmp ult i32 %38, 10
  %or.cond.i.i = select i1 %39, i1 %40, i1 false
  %41 = mul nsw i32 %36, 10
  %42 = add nsw i32 %41, %38
  %43 = select i1 %or.cond.i.i, i32 %42, i32 -1
  store i32 %43, ptr %2, align 4, !tbaa !21
  %44 = icmp slt i32 %43, 0
  br i1 %44, label %x509_parse_time.exit, label %45

45:                                               ; preds = %31
  br i1 %14, label %46, label %60

46:                                               ; preds = %45
  %47 = mul nuw nsw i32 %43, 100
  %48 = getelementptr inbounds nuw i8, ptr %32, i64 2
  %.val27.i = load i8, ptr %48, align 1, !tbaa !8
  %49 = getelementptr i8, ptr %32, i64 3
  %.val28.i = load i8, ptr %49, align 1, !tbaa !8
  %50 = zext i8 %.val27.i to i32
  %51 = add nsw i32 %50, -48
  %52 = zext i8 %.val28.i to i32
  %53 = add nsw i32 %52, -48
  %54 = icmp ult i32 %51, 10
  %55 = icmp ult i32 %53, 10
  %or.cond.i39.i = select i1 %54, i1 %55, i1 false
  %56 = mul nsw i32 %51, 10
  %57 = add nsw i32 %56, %53
  %58 = select i1 %or.cond.i39.i, i32 %57, i32 -1
  store i32 %58, ptr %2, align 4, !tbaa !21
  %59 = icmp slt i32 %58, 0
  br i1 %59, label %x509_parse_time.exit, label %63

60:                                               ; preds = %45
  %61 = icmp samesign ult i32 %43, 50
  %62 = select i1 %61, i32 2000, i32 1900
  br label %63

63:                                               ; preds = %60, %46
  %64 = phi i32 [ %57, %46 ], [ %42, %60 ]
  %.024.i = phi ptr [ %48, %46 ], [ %32, %60 ]
  %.0.i = phi i32 [ %47, %46 ], [ %62, %60 ]
  %65 = add nuw nsw i32 %.0.i, %64
  store i32 %65, ptr %2, align 4, !tbaa !21
  %66 = getelementptr inbounds nuw i8, ptr %.024.i, i64 2
  %.val29.i = load i8, ptr %66, align 1, !tbaa !8
  %67 = getelementptr i8, ptr %.024.i, i64 3
  %.val30.i = load i8, ptr %67, align 1, !tbaa !8
  %68 = zext i8 %.val29.i to i32
  %69 = add nsw i32 %68, -48
  %70 = zext i8 %.val30.i to i32
  %71 = add nsw i32 %70, -48
  %72 = icmp ult i32 %69, 10
  %73 = icmp ult i32 %71, 10
  %or.cond.i40.i = select i1 %72, i1 %73, i1 false
  %74 = mul nsw i32 %69, 10
  %75 = add nsw i32 %74, %71
  %76 = select i1 %or.cond.i40.i, i32 %75, i32 -1
  %77 = getelementptr inbounds nuw i8, ptr %2, i64 4
  store i32 %76, ptr %77, align 4, !tbaa !23
  %78 = getelementptr inbounds nuw i8, ptr %.024.i, i64 4
  %.val31.i = load i8, ptr %78, align 1, !tbaa !8
  %79 = getelementptr i8, ptr %.024.i, i64 5
  %.val32.i = load i8, ptr %79, align 1, !tbaa !8
  %80 = zext i8 %.val31.i to i32
  %81 = add nsw i32 %80, -48
  %82 = zext i8 %.val32.i to i32
  %83 = add nsw i32 %82, -48
  %84 = icmp ult i32 %81, 10
  %85 = icmp ult i32 %83, 10
  %or.cond.i41.i = select i1 %84, i1 %85, i1 false
  %86 = mul nsw i32 %81, 10
  %87 = add nsw i32 %86, %83
  %88 = select i1 %or.cond.i41.i, i32 %87, i32 -1
  %89 = getelementptr inbounds nuw i8, ptr %2, i64 8
  store i32 %88, ptr %89, align 4, !tbaa !24
  %90 = getelementptr inbounds nuw i8, ptr %.024.i, i64 6
  %.val33.i = load i8, ptr %90, align 1, !tbaa !8
  %91 = getelementptr i8, ptr %.024.i, i64 7
  %.val34.i = load i8, ptr %91, align 1, !tbaa !8
  %92 = zext i8 %.val33.i to i32
  %93 = add nsw i32 %92, -48
  %94 = zext i8 %.val34.i to i32
  %95 = add nsw i32 %94, -48
  %96 = icmp ult i32 %93, 10
  %97 = icmp ult i32 %95, 10
  %or.cond.i42.i = select i1 %96, i1 %97, i1 false
  %98 = mul nsw i32 %93, 10
  %99 = add nsw i32 %98, %95
  %100 = select i1 %or.cond.i42.i, i32 %99, i32 -1
  %101 = getelementptr inbounds nuw i8, ptr %2, i64 12
  store i32 %100, ptr %101, align 4, !tbaa !25
  %102 = getelementptr inbounds nuw i8, ptr %.024.i, i64 8
  %.val35.i = load i8, ptr %102, align 1, !tbaa !8
  %103 = getelementptr i8, ptr %.024.i, i64 9
  %.val36.i = load i8, ptr %103, align 1, !tbaa !8
  %104 = zext i8 %.val35.i to i32
  %105 = add nsw i32 %104, -48
  %106 = zext i8 %.val36.i to i32
  %107 = add nsw i32 %106, -48
  %108 = icmp ult i32 %105, 10
  %109 = icmp ult i32 %107, 10
  %or.cond.i43.i = select i1 %108, i1 %109, i1 false
  %110 = mul nsw i32 %105, 10
  %111 = add nsw i32 %110, %107
  %112 = select i1 %or.cond.i43.i, i32 %111, i32 -1
  %113 = getelementptr inbounds nuw i8, ptr %2, i64 16
  store i32 %112, ptr %113, align 4, !tbaa !26
  %114 = getelementptr inbounds nuw i8, ptr %.024.i, i64 10
  %.val37.i = load i8, ptr %114, align 1, !tbaa !8
  %115 = getelementptr i8, ptr %.024.i, i64 11
  %.val38.i = load i8, ptr %115, align 1, !tbaa !8
  %116 = zext i8 %.val37.i to i32
  %117 = add nsw i32 %116, -48
  %118 = zext i8 %.val38.i to i32
  %119 = add nsw i32 %118, -48
  %120 = icmp ult i32 %117, 10
  %121 = icmp ult i32 %119, 10
  %or.cond.i44.i = select i1 %120, i1 %121, i1 false
  %122 = mul nsw i32 %117, 10
  %123 = add nsw i32 %122, %119
  %124 = select i1 %or.cond.i44.i, i32 %123, i32 -1
  %125 = getelementptr inbounds nuw i8, ptr %2, i64 20
  store i32 %124, ptr %125, align 4, !tbaa !27
  switch i32 %76, label %x509_parse_time.exit [
    i32 1, label %134
    i32 3, label %134
    i32 5, label %134
    i32 7, label %134
    i32 8, label %134
    i32 10, label %134
    i32 12, label %134
    i32 4, label %126
    i32 6, label %126
    i32 9, label %126
    i32 11, label %126
    i32 2, label %127
  ]

126:                                              ; preds = %63, %63, %63, %63
  br label %134

127:                                              ; preds = %63
  %128 = and i32 %64, 3
  %.not.i.i = icmp eq i32 %128, 0
  br i1 %.not.i.i, label %129, label %134

129:                                              ; preds = %127
  %130 = urem i32 %65, 100
  %.not12.i.i = icmp eq i32 %130, 0
  br i1 %.not12.i.i, label %131, label %134

131:                                              ; preds = %129
  %132 = urem i32 %65, 400
  %.not13.i.i = icmp eq i32 %132, 0
  %133 = select i1 %.not13.i.i, i32 29, i32 28
  br label %134

134:                                              ; preds = %131, %129, %127, %126, %63, %63, %63, %63, %63, %63, %63
  %.011.i.i = phi i32 [ 30, %126 ], [ 31, %63 ], [ 31, %63 ], [ 31, %63 ], [ 31, %63 ], [ 31, %63 ], [ 31, %63 ], [ 31, %63 ], [ 28, %127 ], [ 29, %129 ], [ %133, %131 ]
  %135 = add nsw i32 %88, -1
  %.not14.i.i = icmp uge i32 %135, %.011.i.i
  %136 = icmp samesign ugt i32 %65, 9999
  %or.cond.i = select i1 %.not14.i.i, i1 true, i1 %136
  %137 = icmp ugt i32 %100, 23
  %or.cond45.i = select i1 %or.cond.i, i1 true, i1 %137
  %138 = icmp ugt i32 %112, 59
  %or.cond46.i = select i1 %or.cond45.i, i1 true, i1 %138
  br i1 %or.cond46.i, label %x509_parse_time.exit, label %139

139:                                              ; preds = %134
  %140 = icmp ugt i32 %124, 59
  %spec.select.i.i = select i1 %140, i32 -9216, i32 0
  br label %x509_parse_time.exit

x509_parse_time.exit:                             ; preds = %139, %134, %63, %46, %31, %10, %3, %22, %25, %17
  %.0 = phi i32 [ %18, %17 ], [ -9216, %25 ], [ -9216, %22 ], [ -9312, %3 ], [ -9314, %10 ], [ -9216, %31 ], [ -9216, %46 ], [ -9216, %63 ], [ -9216, %134 ], [ %spec.select.i.i, %139 ]
  call void @llvm.lifetime.end.p0(i64 8, ptr nonnull %4) #13
  ret i32 %.0
}